target datalayout = "e-m:e-p270:32:32-p271:32:32-p272:64:64-i64:64-i128:128-f80:128-n8:16:32:64-S128"
target triple = "x86_64-pc-linux-gnu"

%struct.ObjectAddress = type { i32, i32, i32 }
%struct.CommentStmt = type { i32, i32, ptr, ptr }
%struct.String = type { i32, ptr }
%struct.RelationData = type { %struct.RelFileLocator, ptr, i32, i32, i8, i8, i8, i8, i8, i32, i32, i32, i32, ptr, ptr, i32, %struct.LockInfoData, ptr, ptr, ptr, ptr, ptr, i8, ptr, ptr, ptr, ptr, ptr, ptr, i32, ptr, i8, ptr, ptr, i32, i8, i32, ptr, i8, ptr, ptr, ptr, ptr, ptr, ptr, ptr, i32, ptr, ptr, ptr, ptr, ptr, ptr, ptr, ptr, ptr, ptr, ptr, ptr, ptr, ptr, ptr, ptr, ptr, ptr, ptr, i32, i8, ptr }
%struct.RelFileLocator = type { i32, i32, i32 }
%struct.LockInfoData = type { %struct.LockRelId }
%struct.LockRelId = type { i32, i32 }
%struct.FormData_pg_class = type { i32, %struct.nameData, i32, i32, i32, i32, i32, i32, i32, i32, float, i32, i32, i8, i8, i8, i8, i16, i16, i8, i8, i8, i8, i8, i8, i8, i8, i32, i32, i32 }
%struct.nameData = type { [64 x i8] }

@InvalidObjectAddress = external constant %struct.ObjectAddress, align 4
@.str = private unnamed_addr constant [29 x i8] c"database \22%s\22 does not exist\00", align 1
@.str.1 = private unnamed_addr constant [10 x i8] c"comment.c\00", align 1
@__func__.CommentObject = private unnamed_addr constant [14 x i8] c"CommentObject\00", align 1
@.str.2 = private unnamed_addr constant [36 x i8] c"cannot set comment on relation \22%s\22\00", align 1

; Function Attrs: nounwind uwtable
define dso_local { i64, i32 } @CommentObject(ptr noundef %0) #0 {
  %2 = alloca %struct.ObjectAddress, align 4
  %3 = alloca ptr, align 8
  %4 = alloca ptr, align 8
  %5 = alloca ptr, align 8
  %6 = alloca i32, align 4
  %7 = alloca %struct.ObjectAddress, align 4
  %8 = alloca { i64, i32 }, align 8
  %9 = alloca { i64, i32 }, align 4
  %10 = alloca { i64, i32 }, align 8
  store ptr %0, ptr %3, align 8
  call void @llvm.lifetime.start.p0(i64 8, ptr %4) #7
  call void @llvm.memcpy.p0.p0.i64(ptr align 4 %2, ptr align 4 @InvalidObjectAddress, i64 12, i1 false)
  %11 = load ptr, ptr %3, align 8
  %12 = getelementptr inbounds nuw %struct.CommentStmt, ptr %11, i32 0, i32 1
  %13 = load i32, ptr %12, align 4
  %14 = icmp eq i32 %13, 9
  br i1 %14, label %15, label %41

15:                                               ; preds = %1
  call void @llvm.lifetime.start.p0(i64 8, ptr %5) #7
  %16 = load ptr, ptr %3, align 8
  %17 = getelementptr inbounds nuw %struct.CommentStmt, ptr %16, i32 0, i32 2
  %18 = load ptr, ptr %17, align 8
  %19 = getelementptr inbounds nuw %struct.String, ptr %18, i32 0, i32 1
  %20 = load ptr, ptr %19, align 8
  store ptr %20, ptr %5, align 8
  %21 = load ptr, ptr %5, align 8
  %22 = call i32 @get_database_oid(ptr noundef %21, i1 noundef zeroext true)
  %23 = icmp ne i32 %22, 0
  br i1 %23, label %37, label %24

24:                                               ; preds = %15
  br label %25

25:                                               ; preds = %24
  br i1 false, label %26, label %28

26:                                               ; preds = %25
  %27 = call zeroext i1 @errstart_cold(i32 noundef 19, ptr noundef null) #8
  br i1 %27, label %30, label %34

28:                                               ; preds = %25
  %29 = call zeroext i1 @errstart(i32 noundef 19, ptr noundef null)
  br i1 %29, label %30, label %34

30:                                               ; preds = %28, %26
  %31 = call i32 @errcode(i32 noundef 1283)
  %32 = load ptr, ptr %5, align 8
  %33 = call i32 (ptr, ...) @errmsg(ptr noundef @.str, ptr noundef %32)
  call void @errfinish(ptr noundef @.str.1, i32 noundef 61, ptr noundef @__func__.CommentObject)
  br label %34

34:                                               ; preds = %30, %28, %26
  br label %35

35:                                               ; preds = %34
  br label %36

36:                                               ; preds = %35
  store i32 1, ptr %6, align 4
  br label %38

37:                                               ; preds = %15
  store i32 0, ptr %6, align 4
  br label %38

38:                                               ; preds = %37, %36
  call void @llvm.lifetime.end.p0(i64 8, ptr %5) #7
  %39 = load i32, ptr %6, align 4
  switch i32 %39, label %177 [
    i32 0, label %40
  ]

40:                                               ; preds = %38
  br label %41

41:                                               ; preds = %40, %1
  call void @llvm.lifetime.start.p0(i64 12, ptr %7) #7
  %42 = load ptr, ptr %3, align 8
  %43 = getelementptr inbounds nuw %struct.CommentStmt, ptr %42, i32 0, i32 1
  %44 = load i32, ptr %43, align 4
  %45 = load ptr, ptr %3, align 8
  %46 = getelementptr inbounds nuw %struct.CommentStmt, ptr %45, i32 0, i32 2
  %47 = load ptr, ptr %46, align 8
  %48 = call { i64, i32 } @get_object_address(i32 noundef %44, ptr noundef %47, ptr noundef %4, i32 noundef 4, i1 noundef zeroext false)
  store { i64, i32 } %48, ptr %8, align 8
  call void @llvm.memcpy.p0.p0.i64(ptr align 4 %7, ptr align 8 %8, i64 12, i1 false)
  call void @llvm.memcpy.p0.p0.i64(ptr align 4 %2, ptr align 4 %7, i64 12, i1 false)
  call void @llvm.lifetime.end.p0(i64 12, ptr %7) #7
  %49 = call i32 @GetUserId()
  %50 = load ptr, ptr %3, align 8
  %51 = getelementptr inbounds nuw %struct.CommentStmt, ptr %50, i32 0, i32 1
  %52 = load i32, ptr %51, align 4
  %53 = load ptr, ptr %3, align 8
  %54 = getelementptr inbounds nuw %struct.CommentStmt, ptr %53, i32 0, i32 2
  %55 = load ptr, ptr %54, align 8
  %56 = load ptr, ptr %4, align 8
  call void @llvm.memcpy.p0.p0.i64(ptr align 4 %9, ptr align 4 %2, i64 12, i1 false)
  %57 = getelementptr inbounds nuw { i64, i32 }, ptr %9, i32 0, i32 0
  %58 = load i64, ptr %57, align 4
  %59 = getelementptr inbounds nuw { i64, i32 }, ptr %9, i32 0, i32 1
  %60 = load i32, ptr %59, align 4
  call void @check_object_ownership(i32 noundef %49, i32 noundef %52, i64 %58, i32 %60, ptr noundef %55, ptr noundef %56)
  %61 = load ptr, ptr %3, align 8
  %62 = getelementptr inbounds nuw %struct.CommentStmt, ptr %61, i32 0, i32 1
  %63 = load i32, ptr %62, align 4
  switch i32 %63, label %137 [
    i32 6, label %64
  ]

64:                                               ; preds = %41
  %65 = load ptr, ptr %4, align 8
  %66 = getelementptr inbounds nuw %struct.RelationData, ptr %65, i32 0, i32 13
  %67 = load ptr, ptr %66, align 8
  %68 = getelementptr inbounds nuw %struct.FormData_pg_class, ptr %67, i32 0, i32 16
  %69 = load i8, ptr %68, align 1
  %70 = sext i8 %69 to i32
  %71 = icmp ne i32 %70, 114
  br i1 %71, label %72, label %136

72:                                               ; preds = %64
  %73 = load ptr, ptr %4, align 8
  %74 = getelementptr inbounds nuw %struct.RelationData, ptr %73, i32 0, i32 13
  %75 = load ptr, ptr %74, align 8
  %76 = getelementptr inbounds nuw %struct.FormData_pg_class, ptr %75, i32 0, i32 16
  %77 = load i8, ptr %76, align 1
  %78 = sext i8 %77 to i32
  %79 = icmp ne i32 %78, 118
  br i1 %79, label %80, label %136

80:                                               ; preds = %72
  %81 = load ptr, ptr %4, align 8
  %82 = getelementptr inbounds nuw %struct.RelationData, ptr %81, i32 0, i32 13
  %83 = load ptr, ptr %82, align 8
  %84 = getelementptr inbounds nuw %struct.FormData_pg_class, ptr %83, i32 0, i32 16
  %85 = load i8, ptr %84, align 1
  %86 = sext i8 %85 to i32
  %87 = icmp ne i32 %86, 109
  br i1 %87, label %88, label %136

88:                                               ; preds = %80
  %89 = load ptr, ptr %4, align 8
  %90 = getelementptr inbounds nuw %struct.RelationData, ptr %89, i32 0, i32 13
  %91 = load ptr, ptr %90, align 8
  %92 = getelementptr inbounds nuw %struct.FormData_pg_class, ptr %91, i32 0, i32 16
  %93 = load i8, ptr %92, align 1
  %94 = sext i8 %93 to i32
  %95 = icmp ne i32 %94, 99
  br i1 %95, label %96, label %136

96:                                               ; preds = %88
  %97 = load ptr, ptr %4, align 8
  %98 = getelementptr inbounds nuw %struct.RelationData, ptr %97, i32 0, i32 13
  %99 = load ptr, ptr %98, align 8
  %100 = getelementptr inbounds nuw %struct.FormData_pg_class, ptr %99, i32 0, i32 16
  %101 = load i8, ptr %100, align 1
  %102 = sext i8 %101 to i32
  %103 = icmp ne i32 %102, 102
  br i1 %103, label %104, label %136

104:                                              ; preds = %96
  %105 = load ptr, ptr %4, align 8
  %106 = getelementptr inbounds nuw %struct.RelationData, ptr %105, i32 0, i32 13
  %107 = load ptr, ptr %106, align 8
  %108 = getelementptr inbounds nuw %struct.FormData_pg_class, ptr %107, i32 0, i32 16
  %109 = load i8, ptr %108, align 1
  %110 = sext i8 %109 to i32
  %111 = icmp ne i32 %110, 112
  br i1 %111, label %112, label %136

112:                                              ; preds = %104
  br label %113

113:                                              ; preds = %112
  br i1 true, label %114, label %116

114:                                              ; preds = %113
  %115 = call zeroext i1 @errstart_cold(i32 noundef 21, ptr noundef null) #8
  br i1 %115, label %118, label %133

116:                                              ; preds = %113
  %117 = call zeroext i1 @errstart(i32 noundef 21, ptr noundef null)
  br i1 %117, label %118, label %133

118:                                              ; preds = %116, %114
  %119 = call i32 @errcode(i32 noundef 151027844)
  %120 = load ptr, ptr %4, align 8
  %121 = getelementptr inbounds nuw %struct.RelationData, ptr %120, i32 0, i32 13
  %122 = load ptr, ptr %121, align 8
  %123 = getelementptr inbounds nuw %struct.FormData_pg_class, ptr %122, i32 0, i32 1
  %124 = getelementptr inbounds nuw %struct.nameData, ptr %123, i32 0, i32 0
  %125 = getelementptr inbounds [64 x i8], ptr %124, i64 0, i64 0
  %126 = call i32 (ptr, ...) @errmsg(ptr noundef @.str.2, ptr noundef %125)
  %127 = load ptr, ptr %4, align 8
  %128 = getelementptr inbounds nuw %struct.RelationData, ptr %127, i32 0, i32 13
  %129 = load ptr, ptr %128, align 8
  %130 = getelementptr inbounds nuw %struct.FormData_pg_class, ptr %129, i32 0, i32 16
  %131 = load i8, ptr %130, align 1
  %132 = call i32 @errdetail_relkind_not_supported(i8 noundef signext %131)
  call void @errfinish(ptr noundef @.str.1, i32 noundef 103, ptr noundef @__func__.CommentObject)
  br label %133

133:                                              ; preds = %118, %116, %114
  unreachable

134:                                              ; No predecessors!
  br label %135

135:                                              ; preds = %134
  br label %136

136:                                              ; preds = %135, %104, %96, %88, %80, %72, %64
  br label %138

137:                                              ; preds = %41
  br label %138

138:                                              ; preds = %137, %136
  %139 = load ptr, ptr %3, align 8
  %140 = getelementptr inbounds nuw %struct.CommentStmt, ptr %139, i32 0, i32 1
  %141 = load i32, ptr %140, align 4
  %142 = icmp eq i32 %141, 9
  br i1 %142, label %153, label %143

143:                                              ; preds = %138
  %144 = load ptr, ptr %3, align 8
  %145 = getelementptr inbounds nuw %struct.CommentStmt, ptr %144, i32 0, i32 1
  %146 = load i32, ptr %145, align 4
  %147 = icmp eq i32 %146, 42
  br i1 %147, label %153, label %148

148:                                              ; preds = %143
  %149 = load ptr, ptr %3, align 8
  %150 = getelementptr inbounds nuw %struct.CommentStmt, ptr %149, i32 0, i32 1
  %151 = load i32, ptr %150, align 4
  %152 = icmp eq i32 %151, 33
  br i1 %152, label %153, label %161

153:                                              ; preds = %148, %143, %138
  %154 = getelementptr inbounds nuw %struct.ObjectAddress, ptr %2, i32 0, i32 1
  %155 = load i32, ptr %154, align 4
  %156 = getelementptr inbounds nuw %struct.ObjectAddress, ptr %2, i32 0, i32 0
  %157 = load i32, ptr %156, align 4
  %158 = load ptr, ptr %3, align 8
  %159 = getelementptr inbounds nuw %struct.CommentStmt, ptr %158, i32 0, i32 3
  %160 = load ptr, ptr %159, align 8
  call void @CreateSharedComments(i32 noundef %155, i32 noundef %157, ptr noundef %160)
  br label %171

161:                                              ; preds = %148
  %162 = getelementptr inbounds nuw %struct.ObjectAddress, ptr %2, i32 0, i32 1
  %163 = load i32, ptr %162, align 4
  %164 = getelementptr inbounds nuw %struct.ObjectAddress, ptr %2, i32 0, i32 0
  %165 = load i32, ptr %164, align 4
  %166 = getelementptr inbounds nuw %struct.ObjectAddress, ptr %2, i32 0, i32 2
  %167 = load i32, ptr %166, align 4
  %168 = load ptr, ptr %3, align 8
  %169 = getelementptr inbounds nuw %struct.CommentStmt, ptr %168, i32 0, i32 3
  %170 = load ptr, ptr %169, align 8
  call void @CreateComments(i32 noundef %163, i32 noundef %165, i32 noundef %167, ptr noundef %170)
  br label %171

171:                                              ; preds = %161, %153
  %172 = load ptr, ptr %4, align 8
  %173 = icmp ne ptr %172, null
  br i1 %173, label %174, label %176

174:                                              ; preds = %171
  %175 = load ptr, ptr %4, align 8
  call void @relation_close(ptr noundef %175, i32 noundef 0)
  br label %176

176:                                              ; preds = %174, %171
  store i32 1, ptr %6, align 4
  br label %177

177:                                              ; preds = %176, %38
  call void @llvm.lifetime.end.p0(i64 8, ptr %4) #7
  call void @llvm.memcpy.p0.p0.i64(ptr align 8 %10, ptr align 4 %2, i64 12, i1 false)
  %178 = load { i64, i32 }, ptr %10, align 8
  ret { i64, i32 } %178
}