; Function Attrs: nounwind uwtable
define dso_local { i64, i32 } @CommentObject(ptr noundef readonly captures(none) %0) local_unnamed_addr #0 {
  %2 = alloca ptr, align 8
  call void @llvm.lifetime.start.p0(i64 8, ptr nonnull %2) #6
  %.sroa.020.0.copyload = load i64, ptr @InvalidObjectAddress, align 4
  %.sroa.020.sroa.6.0.extract.shift34 = lshr i64 %.sroa.020.0.copyload, 32
  %.sroa.8.0.copyload = load i32, ptr getelementptr inbounds nuw (i8, ptr @InvalidObjectAddress, i64 8), align 4
  %3 = getelementptr inbounds nuw i8, ptr %0, i64 4
  %4 = load i32, ptr %3, align 4
  %5 = icmp eq i32 %4, 9
  br i1 %5, label %6, label %.critedge

6:                                                ; preds = %1
  %7 = getelementptr inbounds nuw i8, ptr %0, i64 8
  %8 = load ptr, ptr %7, align 8
  %9 = getelementptr inbounds nuw i8, ptr %8, i64 8
  %10 = load ptr, ptr %9, align 8
  %11 = tail call i32 @get_database_oid(ptr noundef %10, i1 noundef zeroext true) #6
  %.not.not = icmp eq i32 %11, 0
  br i1 %.not.not, label %12, label %..critedge_crit_edge

..critedge_crit_edge:                             ; preds = %6
  %.pre = load i32, ptr %3, align 4
  br label %.critedge

12:                                               ; preds = %6
  %13 = tail call zeroext i1 @errstart(i32 noundef 19, ptr noundef null) #6
  br i1 %13, label %14, label %54

14:                                               ; preds = %12
  %15 = tail call i32 @errcode(i32 noundef 1283) #6
  %16 = tail call i32 (ptr, ...) @errmsg(ptr noundef nonnull @.str, ptr noundef %10) #6
  tail call void @errfinish(ptr noundef nonnull @.str.1, i32 noundef 61, ptr noundef nonnull @__func__.CommentObject) #6
  br label %54

.critedge:                                        ; preds = %..critedge_crit_edge, %1
  %17 = phi i32 [ %.pre, %..critedge_crit_edge ], [ %4, %1 ]
  %18 = getelementptr inbounds nuw i8, ptr %0, i64 8
  %19 = load ptr, ptr %18, align 8
  %20 = call { i64, i32 } @get_object_address(i32 noundef %17, ptr noundef %19, ptr noundef nonnull %2, i32 noundef 4, i1 noundef zeroext false) #6
  %.fca.0.extract = extractvalue { i64, i32 } %20, 0
  %.fca.1.extract = extractvalue { i64, i32 } %20, 1
  %.sroa.020.sroa.0.0.extract.trunc = trunc i64 %.fca.0.extract to i32
  %.sroa.020.sroa.6.0.extract.shift = lshr i64 %.fca.0.extract, 32
  %.sroa.020.sroa.6.0.extract.trunc = trunc nuw i64 %.sroa.020.sroa.6.0.extract.shift to i32
  %21 = call i32 @GetUserId() #6
  %22 = load i32, ptr %3, align 4
  %23 = load ptr, ptr %18, align 8
  %24 = load ptr, ptr %2, align 8
  call void @check_object_ownership(i32 noundef %21, i32 noundef %22, i64 %.fca.0.extract, i32 %.fca.1.extract, ptr noundef %23, ptr noundef %24) #6
  %25 = load i32, ptr %3, align 4
  switch i32 %25, label %.thread [
    i32 6, label %26
    i32 9, label %46
    i32 42, label %46
    i32 33, label %46
  ]

26:                                               ; preds = %.critedge
  %27 = load ptr, ptr %2, align 8
  %28 = getelementptr inbounds nuw i8, ptr %27, i64 56
  %29 = load ptr, ptr %28, align 8
  %30 = getelementptr inbounds nuw i8, ptr %29, i64 115
  %31 = load i8, ptr %30, align 1
  switch i8 %31, label %32 [
    i8 114, label %.thread
    i8 118, label %.thread
    i8 109, label %.thread
    i8 99, label %.thread
    i8 102, label %.thread
    i8 112, label %.thread
  ]

32:                                               ; preds = %26
  %33 = call zeroext i1 @errstart_cold(i32 noundef 21, ptr noundef null) #7
  call void @llvm.assume(i1 %33)
  %34 = call i32 @errcode(i32 noundef 151027844) #6
  %35 = load ptr, ptr %2, align 8
  %36 = getelementptr inbounds nuw i8, ptr %35, i64 56
  %37 = load ptr, ptr %36, align 8
  %38 = getelementptr inbounds nuw i8, ptr %37, i64 4
  %39 = call i32 (ptr, ...) @errmsg(ptr noundef nonnull @.str.2, ptr noundef nonnull %38) #6
  %40 = load ptr, ptr %2, align 8
  %41 = getelementptr inbounds nuw i8, ptr %40, i64 56
  %42 = load ptr, ptr %41, align 8
  %43 = getelementptr inbounds nuw i8, ptr %42, i64 115
  %44 = load i8, ptr %43, align 1
  %45 = call i32 @errdetail_relkind_not_supported(i8 noundef signext %44) #6
  call void @errfinish(ptr noundef nonnull @.str.1, i32 noundef 103, ptr noundef nonnull @__func__.CommentObject) #6
  unreachable

46:                                               ; preds = %.critedge, %.critedge, %.critedge
  %47 = getelementptr inbounds nuw i8, ptr %0, i64 16
  %48 = load ptr, ptr %47, align 8
  call void @CreateSharedComments(i32 noundef %.sroa.020.sroa.6.0.extract.trunc, i32 noundef %.sroa.020.sroa.0.0.extract.trunc, ptr noundef %48)
  br label %51

.thread:                                          ; preds = %.critedge, %26, %26, %26, %26, %26, %26
  %49 = getelementptr inbounds nuw i8, ptr %0, i64 16
  %50 = load ptr, ptr %49, align 8
  call void @CreateComments(i32 noundef %.sroa.020.sroa.6.0.extract.trunc, i32 noundef %.sroa.020.sroa.0.0.extract.trunc, i32 noundef %.fca.1.extract, ptr noundef %50)
  br label %51

51:                                               ; preds = %.thread, %46
  %52 = load ptr, ptr %2, align 8
  %.not44 = icmp eq ptr %52, null
  br i1 %.not44, label %54, label %53

53:                                               ; preds = %51
  call void @relation_close(ptr noundef nonnull %52, i32 noundef 0) #6
  br label %54

54:                                               ; preds = %14, %12, %51, %53
  %.sroa.8.0 = phi i32 [ %.fca.1.extract, %53 ], [ %.fca.1.extract, %51 ], [ %.sroa.8.0.copyload, %12 ], [ %.sroa.8.0.copyload, %14 ]
  %.sroa.020.sroa.0.0 = phi i64 [ %.fca.0.extract, %53 ], [ %.fca.0.extract, %51 ], [ %.sroa.020.0.copyload, %12 ], [ %.sroa.020.0.copyload, %14 ]
  %.sroa.020.sroa.6.0 = phi i64 [ %.sroa.020.sroa.6.0.extract.shift, %53 ], [ %.sroa.020.sroa.6.0.extract.shift, %51 ], [ %.sroa.020.sroa.6.0.extract.shift34, %12 ], [ %.sroa.020.sroa.6.0.extract.shift34, %14 ]
  call void @llvm.lifetime.end.p0(i64 8, ptr nonnull %2) #6
  %.sroa.020.sroa.6.0.insert.shift = shl nuw i64 %.sroa.020.sroa.6.0, 32
  %.sroa.020.sroa.0.0.insert.ext = and i64 %.sroa.020.sroa.0.0, 4294967295
  %.sroa.020.sroa.0.0.insert.insert = or disjoint i64 %.sroa.020.sroa.6.0.insert.shift, %.sroa.020.sroa.0.0.insert.ext
  %.fca.0.insert = insertvalue { i64, i32 } poison, i64 %.sroa.020.sroa.0.0.insert.insert, 0
  %.fca.1.insert = insertvalue { i64, i32 } %.fca.0.insert, i32 %.sroa.8.0, 1
  ret { i64, i32 } %.fca.1.insert
}